; Function Attrs: mustprogress nounwind uwtable
define void @_ZN5faiss8IndexNSGD2Ev(ptr noundef nonnull align 8 dereferenceable(5132) %0) unnamed_addr #0 align 2 personality ptr @__gxx_personality_v0 {
  store ptr getelementptr inbounds ({ [24 x ptr] }, ptr @_ZTVN5faiss8IndexNSGE, i64 0, i32 0, i64 2), ptr %0, align 8
  %2 = getelementptr inbounds i8, ptr %0, i64 5088
  %3 = load i8, ptr %2, align 8
  %4 = and i8 %3, 1
  %.not = icmp eq i8 %4, 0
  br i1 %.not, label %13, label %5

5:                                                ; preds = %1
  %6 = getelementptr inbounds i8, ptr %0, i64 5096
  %7 = load ptr, ptr %6, align 8
  %8 = icmp eq ptr %7, null
  br i1 %8, label %13, label %9

9:                                                ; preds = %5
  %10 = load ptr, ptr %7, align 8
  %11 = getelementptr inbounds i8, ptr %10, i64 8
  %12 = load ptr, ptr %11, align 8
  tail call void %12(ptr noundef nonnull align 8 dereferenceable(36) %7) #8
  br label %13

13:                                               ; preds = %5, %9, %1
  %14 = getelementptr inbounds i8, ptr %0, i64 72
  %15 = load ptr, ptr %14, align 8
  %.not.i.i.i.i = icmp eq ptr %15, null
  br i1 %.not.i.i.i.i, label %_ZN5faiss3NSGD2Ev.exit, label %16

16:                                               ; preds = %13
  %17 = getelementptr inbounds i8, ptr %15, i64 8
  %18 = load atomic i64, ptr %17 acquire, align 8
  %19 = icmp eq i64 %18, 4294967297
  %20 = trunc i64 %18 to i32
  br i1 %19, label %21, label %26

21:                                               ; preds = %16
  store i32 0, ptr %17, align 8
  %22 = getelementptr inbounds i8, ptr %15, i64 12
  store i32 0, ptr %22, align 4
  %23 = load ptr, ptr %15, align 8
  %24 = getelementptr inbounds i8, ptr %23, i64 16
  %25 = load ptr, ptr %24, align 8
  tail call void %25(ptr noundef nonnull align 8 dereferenceable(16) %15) #8
  br label %_ZNSt16_Sp_counted_baseILN9__gnu_cxx12_Lock_policyE2EE24_M_release_last_use_coldEv.exit.sink.split.i.i.i.i.i

26:                                               ; preds = %16
  %27 = load i8, ptr @__libc_single_threaded, align 1
  %.not.i.i.i.i.i = icmp eq i8 %27, 0
  br i1 %.not.i.i.i.i.i, label %30, label %28

28:                                               ; preds = %26
  %29 = add nsw i32 %20, -1
  store i32 %29, ptr %17, align 4
  br label %32

30:                                               ; preds = %26
  %31 = atomicrmw volatile add ptr %17, i32 -1 acq_rel, align 4
  br label %32

32:                                               ; preds = %30, %28
  %.0.i.i.i.i.i = phi i32 [ %20, %28 ], [ %31, %30 ]
  %33 = icmp eq i32 %.0.i.i.i.i.i, 1
  br i1 %33, label %34, label %_ZN5faiss3NSGD2Ev.exit

34:                                               ; preds = %32
  %35 = load ptr, ptr %15, align 8
  %36 = getelementptr inbounds i8, ptr %35, i64 16
  %37 = load ptr, ptr %36, align 8
  tail call void %37(ptr noundef nonnull align 8 dereferenceable(16) %15) #8
  %38 = getelementptr inbounds i8, ptr %15, i64 12
  %39 = load i8, ptr @__libc_single_threaded, align 1
  %.not.i.i.i.i.i.i.i = icmp eq i8 %39, 0
  br i1 %.not.i.i.i.i.i.i.i, label %43, label %40

40:                                               ; preds = %34
  %41 = load i32, ptr %38, align 4
  %42 = add nsw i32 %41, -1
  store i32 %42, ptr %38, align 4
  br label %45

43:                                               ; preds = %34
  %44 = atomicrmw volatile add ptr %38, i32 -1 acq_rel, align 4
  br label %45

45:                                               ; preds = %43, %40
  %.0.i.i.i.i.i.i.i = phi i32 [ %41, %40 ], [ %44, %43 ]
  %46 = icmp eq i32 %.0.i.i.i.i.i.i.i, 1
  br i1 %46, label %_ZNSt16_Sp_counted_baseILN9__gnu_cxx12_Lock_policyE2EE24_M_release_last_use_coldEv.exit.sink.split.i.i.i.i.i, label %_ZN5faiss3NSGD2Ev.exit

_ZNSt16_Sp_counted_baseILN9__gnu_cxx12_Lock_policyE2EE24_M_release_last_use_coldEv.exit.sink.split.i.i.i.i.i: ; preds = %45, %21
  %47 = load ptr, ptr %15, align 8
  %48 = getelementptr inbounds i8, ptr %47, i64 24
  %49 = load ptr, ptr %48, align 8
  tail call void %49(ptr noundef nonnull align 8 dereferenceable(16) %15) #8
  br label %_ZN5faiss3NSGD2Ev.exit

_ZN5faiss3NSGD2Ev.exit:                           ; preds = %13, %32, %45, %_ZNSt16_Sp_counted_baseILN9__gnu_cxx12_Lock_policyE2EE24_M_release_last_use_coldEv.exit.sink.split.i.i.i.i.i
  tail call void @_ZN5faiss5IndexD2Ev(ptr noundef nonnull align 8 dereferenceable(36) %0) #8
  ret void
}